target datalayout = "e-m:e-p270:32:32-p271:32:32-p272:64:64-i64:64-i128:128-f80:128-n8:16:32:64-S128"
target triple = "x86_64-pc-linux-gnu"

%struct.CatalogId = type { i32, i32 }
%struct._dumpableObject = type { i32, %struct.CatalogId, i32, ptr, ptr, i32, i32, i32, i8, i8, ptr, i32, i32 }

; Function Attrs: nounwind uwtable
define internal void @findDumpableDependencies(ptr noundef %0, ptr noundef %1, ptr noundef %2, ptr noundef %3, ptr noundef %4) #0 {
  %6 = alloca ptr, align 8
  %7 = alloca ptr, align 8
  %8 = alloca ptr, align 8
  %9 = alloca ptr, align 8
  %10 = alloca ptr, align 8
  %11 = alloca i32, align 4
  %12 = alloca i32, align 4
  %13 = alloca i32, align 4
  %14 = alloca ptr, align 8
  store ptr %0, ptr %6, align 8
  store ptr %1, ptr %7, align 8
  store ptr %2, ptr %8, align 8
  store ptr %3, ptr %9, align 8
  store ptr %4, ptr %10, align 8
  call void @llvm.lifetime.start.p0(i64 4, ptr %11) #10
  %15 = load ptr, ptr %7, align 8
  %16 = getelementptr inbounds nuw %struct._dumpableObject, ptr %15, i32 0, i32 0
  %17 = load i32, ptr %16, align 8
  %18 = icmp eq i32 %17, 37
  br i1 %18, label %24, label %19

19:                                               ; preds = %5
  %20 = load ptr, ptr %7, align 8
  %21 = getelementptr inbounds nuw %struct._dumpableObject, ptr %20, i32 0, i32 0
  %22 = load i32, ptr %21, align 8
  %23 = icmp eq i32 %22, 38
  br i1 %23, label %24, label %25

24:                                               ; preds = %19, %5
  store i32 1, ptr %12, align 4
  br label %90

25:                                               ; preds = %19
  store i32 0, ptr %11, align 4
  br label %26

26:                                               ; preds = %86, %25
  %27 = load i32, ptr %11, align 4
  %28 = load ptr, ptr %7, align 8
  %29 = getelementptr inbounds nuw %struct._dumpableObject, ptr %28, i32 0, i32 11
  %30 = load i32, ptr %29, align 8
  %31 = icmp slt i32 %27, %30
  br i1 %31, label %32, label %89

32:                                               ; preds = %26
  call void @llvm.lifetime.start.p0(i64 4, ptr %13) #10
  %33 = load ptr, ptr %7, align 8
  %34 = getelementptr inbounds nuw %struct._dumpableObject, ptr %33, i32 0, i32 10
  %35 = load ptr, ptr %34, align 8
  %36 = load i32, ptr %11, align 4
  %37 = sext i32 %36 to i64
  %38 = getelementptr inbounds i32, ptr %35, i64 %37
  %39 = load i32, ptr %38, align 4
  store i32 %39, ptr %13, align 4
  %40 = load ptr, ptr %6, align 8
  %41 = load i32, ptr %13, align 4
  %42 = call i32 @TocIDRequired(ptr noundef %40, i32 noundef %41)
  %43 = icmp ne i32 %42, 0
  br i1 %43, label %44, label %73

44:                                               ; preds = %32
  %45 = load ptr, ptr %9, align 8
  %46 = load i32, ptr %45, align 4
  %47 = load ptr, ptr %10, align 8
  %48 = load i32, ptr %47, align 4
  %49 = icmp sge i32 %46, %48
  br i1 %49, label %50, label %62

50:                                               ; preds = %44
  %51 = load ptr, ptr %10, align 8
  %52 = load i32, ptr %51, align 4
  %53 = mul i32 %52, 2
  store i32 %53, ptr %51, align 4
  %54 = load ptr, ptr %8, align 8
  %55 = load ptr, ptr %54, align 8
  %56 = load ptr, ptr %10, align 8
  %57 = load i32, ptr %56, align 4
  %58 = sext i32 %57 to i64
  %59 = mul i64 %58, 4
  %60 = call ptr @pg_realloc(ptr noundef %55, i64 noundef %59)
  %61 = load ptr, ptr %8, align 8
  store ptr %60, ptr %61, align 8
  br label %62

62:                                               ; preds = %50, %44
  %63 = load i32, ptr %13, align 4
  %64 = load ptr, ptr %8, align 8
  %65 = load ptr, ptr %64, align 8
  %66 = load ptr, ptr %9, align 8
  %67 = load i32, ptr %66, align 4
  %68 = sext i32 %67 to i64
  %69 = getelementptr inbounds i32, ptr %65, i64 %68
  store i32 %63, ptr %69, align 4
  %70 = load ptr, ptr %9, align 8
  %71 = load i32, ptr %70, align 4
  %72 = add i32 %71, 1
  store i32 %72, ptr %70, align 4
  br label %85

73:                                               ; preds = %32
  call void @llvm.lifetime.start.p0(i64 8, ptr %14) #10
  %74 = load i32, ptr %13, align 4
  %75 = call ptr @findObjectByDumpId(i32 noundef %74)
  store ptr %75, ptr %14, align 8
  %76 = load ptr, ptr %14, align 8
  %77 = icmp ne ptr %76, null
  br i1 %77, label %78, label %84

78:                                               ; preds = %73
  %79 = load ptr, ptr %6, align 8
  %80 = load ptr, ptr %14, align 8
  %81 = load ptr, ptr %8, align 8
  %82 = load ptr, ptr %9, align 8
  %83 = load ptr, ptr %10, align 8
  call void @findDumpableDependencies(ptr noundef %79, ptr noundef %80, ptr noundef %81, ptr noundef %82, ptr noundef %83)
  br label %84

84:                                               ; preds = %78, %73
  call void @llvm.lifetime.end.p0(i64 8, ptr %14) #10
  br label %85

85:                                               ; preds = %84, %62
  call void @llvm.lifetime.end.p0(i64 4, ptr %13) #10
  br label %86

86:                                               ; preds = %85
  %87 = load i32, ptr %11, align 4
  %88 = add i32 %87, 1
  store i32 %88, ptr %11, align 4
  br label %26, !llvm.loop !169

89:                                               ; preds = %26
  store i32 0, ptr %12, align 4
  br label %90

90:                                               ; preds = %89, %24
  call void @llvm.lifetime.end.p0(i64 4, ptr %11) #10
  %91 = load i32, ptr %12, align 4
  switch i32 %91, label %93 [
    i32 0, label %92
    i32 1, label %92
  ]

92:                                               ; preds = %90, %90
  ret void

93:                                               ; preds = %90
  unreachable
}