; Function Attrs: nounwind uwtable
define internal fastcc void @findDumpableDependencies(ptr noundef %0, ptr noundef nonnull readonly captures(none) %1, ptr noundef nonnull captures(none) %2, ptr noundef nonnull captures(none) %3, ptr noundef nonnull captures(none) %4) unnamed_addr #5 {
  %6 = load i32, ptr %1, align 8
  %.off = add i32 %6, -37
  %switch = icmp ult i32 %.off, 2
  br i1 %switch, label %.loopexit, label %.preheader

.preheader:                                       ; preds = %5
  %7 = getelementptr inbounds nuw i8, ptr %1, i64 56
  %8 = load i32, ptr %7, align 8
  %9 = icmp sgt i32 %8, 0
  br i1 %9, label %.lr.ph, label %.loopexit

.lr.ph:                                           ; preds = %.preheader
  %10 = getelementptr inbounds nuw i8, ptr %1, i64 48
  br label %11

11:                                               ; preds = %.lr.ph, %35
  %indvars.iv = phi i64 [ 0, %.lr.ph ], [ %indvars.iv.next, %35 ]
  %12 = load ptr, ptr %10, align 8
  %13 = getelementptr inbounds nuw i32, ptr %12, i64 %indvars.iv
  %14 = load i32, ptr %13, align 4
  %15 = tail call i32 @TocIDRequired(ptr noundef %0, i32 noundef %14) #14
  %.not = icmp eq i32 %15, 0
  br i1 %.not, label %32, label %16

16:                                               ; preds = %11
  %17 = load i32, ptr %3, align 4
  %18 = load i32, ptr %4, align 4
  %.not29 = icmp slt i32 %17, %18
  br i1 %.not29, label %._crit_edge, label %19

._crit_edge:                                      ; preds = %16
  %.pre = load ptr, ptr %2, align 8
  br label %25

19:                                               ; preds = %16
  %20 = shl i32 %18, 1
  store i32 %20, ptr %4, align 4
  %21 = load ptr, ptr %2, align 8
  %22 = sext i32 %20 to i64
  %23 = shl nsw i64 %22, 2
  %24 = tail call ptr @pg_realloc(ptr noundef %21, i64 noundef %23) #14
  store ptr %24, ptr %2, align 8
  %.pre32 = load i32, ptr %3, align 4
  br label %25

25:                                               ; preds = %._crit_edge, %19
  %26 = phi i32 [ %17, %._crit_edge ], [ %.pre32, %19 ]
  %27 = phi ptr [ %.pre, %._crit_edge ], [ %24, %19 ]
  %28 = sext i32 %26 to i64
  %29 = getelementptr inbounds i32, ptr %27, i64 %28
  store i32 %14, ptr %29, align 4
  %30 = load i32, ptr %3, align 4
  %31 = add i32 %30, 1
  store i32 %31, ptr %3, align 4
  br label %35

32:                                               ; preds = %11
  %33 = tail call ptr @findObjectByDumpId(i32 noundef %14) #14
  %.not28 = icmp eq ptr %33, null
  br i1 %.not28, label %35, label %34

34:                                               ; preds = %32
  tail call fastcc void @findDumpableDependencies(ptr noundef %0, ptr noundef %33, ptr noundef %2, ptr noundef %3, ptr noundef %4)
  br label %35

35:                                               ; preds = %32, %34, %25
  %indvars.iv.next = add nuw nsw i64 %indvars.iv, 1
  %36 = load i32, ptr %7, align 8
  %37 = sext i32 %36 to i64
  %38 = icmp slt i64 %indvars.iv.next, %37
  br i1 %38, label %11, label %.loopexit, !llvm.loop !169

.loopexit:                                        ; preds = %35, %.preheader, %5
  ret void
}